; Function Attrs: mustprogress nounwind uwtable
define hidden noundef zeroext i1 @_ZN11FileMapInfo34remap_shared_readonly_as_readwriteEv(ptr nocapture noundef nonnull align 8 dereferenceable(40) %0) local_unnamed_addr #0 align 2 {
  %2 = getelementptr inbounds i8, ptr %0, i64 32
  %3 = load ptr, ptr %2, align 8
  %4 = getelementptr inbounds i8, ptr %3, i64 116
  %5 = load i32, ptr %4, align 4
  %.not13 = icmp eq i32 %5, 0
  br i1 %.not13, label %52, label %6

6:                                                ; preds = %1
  %7 = getelementptr inbounds i8, ptr %3, i64 152
  %8 = load i64, ptr %7, align 8
  %9 = tail call noundef i64 @_ZN15MetaspaceShared21core_region_alignmentEv() #25
  %10 = tail call noundef zeroext i1 @_ZN11FileMapInfo13open_for_readEv(ptr noundef nonnull align 8 dereferenceable(40) %0)
  br i1 %10, label %11, label %52

11:                                               ; preds = %6
  %12 = add i64 %8, -1
  %13 = add i64 %12, %9
  %14 = sub i64 0, %9
  %15 = and i64 %13, %14
  %16 = getelementptr inbounds i8, ptr %3, i64 192
  %17 = load ptr, ptr %16, align 8
  %18 = getelementptr inbounds i8, ptr %0, i64 4
  %19 = load i32, ptr %18, align 4
  %20 = getelementptr inbounds i8, ptr %0, i64 16
  %21 = load ptr, ptr %20, align 8
  %22 = getelementptr inbounds i8, ptr %3, i64 136
  %23 = load i64, ptr %22, align 8
  %24 = getelementptr inbounds i8, ptr %3, i64 120
  %25 = load i32, ptr %24, align 8
  %26 = icmp ne i32 %25, 0
  %27 = tail call noundef ptr @_ZN2os10map_memoryEiPKcmPcmbb8MEMFLAGS(i32 noundef %19, ptr noundef %21, i64 noundef %23, ptr noundef %17, i64 noundef %15, i1 noundef zeroext false, i1 noundef zeroext %26, i8 noundef zeroext 27) #25
  %28 = getelementptr inbounds i8, ptr %0, i64 1
  %29 = load i8, ptr %28, align 1
  %30 = trunc i8 %29 to i1
  br i1 %30, label %31, label %_ZN11FileMapInfo5closeEv.exit

31:                                               ; preds = %11
  %32 = load i32, ptr %18, align 4
  %33 = tail call i32 @close(i32 noundef %32) #25
  %34 = icmp slt i32 %33, 0
  br i1 %34, label %35, label %36

35:                                               ; preds = %31
  tail call void @_ZN15MetaspaceShared27unrecoverable_loading_errorEPKc(ptr noundef nonnull @.str.133) #25
  br label %36

36:                                               ; preds = %35, %31
  store i8 0, ptr %28, align 1
  store i32 -1, ptr %18, align 4
  br label %_ZN11FileMapInfo5closeEv.exit

_ZN11FileMapInfo5closeEv.exit:                    ; preds = %11, %36
  %37 = icmp eq ptr %27, null
  br i1 %37, label %38, label %44

38:                                               ; preds = %_ZN11FileMapInfo5closeEv.exit
  %39 = load volatile ptr, ptr getelementptr inbounds (i8, ptr @_ZN16LogTagSetMappingILN6LogTag4typeE14ELS1_0ELS1_0ELS1_0ELS1_0ELS1_0EE7_tagsetE, i64 80), align 8
  %.not14 = icmp eq ptr %39, null
  br i1 %.not14, label %43, label %40

40:                                               ; preds = %38
  %41 = tail call ptr @__errno_location() #27
  %42 = load i32, ptr %41, align 4
  tail call void (ptr, ...) @_ZN7LogImplILN6LogTag4typeE14ELS1_0ELS1_0ELS1_0ELS1_0ELS1_0EE5writeILN8LogLevel4typeE5EEEvPKcz(ptr noundef nonnull @.str.134, i32 noundef %42)
  br label %43

43:                                               ; preds = %38, %40
  tail call void @_Z7vm_exiti(i32 noundef 1) #25
  br label %44

44:                                               ; preds = %43, %_ZN11FileMapInfo5closeEv.exit
  %.not = icmp eq ptr %27, %17
  br i1 %.not, label %51, label %45

45:                                               ; preds = %44
  %46 = load volatile ptr, ptr getelementptr inbounds (i8, ptr @_ZN16LogTagSetMappingILN6LogTag4typeE14ELS1_0ELS1_0ELS1_0ELS1_0ELS1_0EE7_tagsetE, i64 80), align 8
  %.not15 = icmp eq ptr %46, null
  br i1 %.not15, label %50, label %47

47:                                               ; preds = %45
  %48 = tail call ptr @__errno_location() #27
  %49 = load i32, ptr %48, align 4
  tail call void (ptr, ...) @_ZN7LogImplILN6LogTag4typeE14ELS1_0ELS1_0ELS1_0ELS1_0ELS1_0EE5writeILN8LogLevel4typeE5EEEvPKcz(ptr noundef nonnull @.str.134, i32 noundef %49)
  br label %50

50:                                               ; preds = %45, %47
  tail call void @_Z7vm_exiti(i32 noundef 1) #25
  br label %51

51:                                               ; preds = %50, %44
  store i32 0, ptr %4, align 4
  br label %52

52:                                               ; preds = %6, %1, %51
  %.0 = phi i1 [ true, %51 ], [ true, %1 ], [ false, %6 ]
  ret i1 %.0
}